; Function Attrs: null_pointer_is_valid sspstrong uwtable
define zeroext i1 @print_bookmark(ptr noundef %0, ptr noundef %1, ptr noundef %2) local_unnamed_addr #0 {
  %4 = load ptr, ptr %0, align 8
  %5 = getelementptr inbounds nuw i8, ptr %4, i64 24
  %6 = load ptr, ptr %5, align 8
  %.not = icmp eq ptr %6, null
  br i1 %.not, label %9, label %7

7:                                                ; preds = %3
  %8 = tail call zeroext i1 %6(ptr noundef %0, ptr noundef %1, ptr noundef %2)
  br label %9

9:                                                ; preds = %3, %7
  %10 = phi i1 [ %8, %7 ], [ true, %3 ]
  ret i1 %10
}